; Function Attrs: mustprogress uwtable
define noundef zeroext i1 @_ZN3zmq6xsub_t5matchEPNS_5msg_tE(ptr noundef nonnull align 8 dereferenceable(2028) %this, ptr noundef nonnull %msg_) local_unnamed_addr #0 align 2 {
entry:
  %_subscriptions = getelementptr inbounds i8, ptr %this, i64 1936
  %call = tail call noundef ptr @_ZN3zmq5msg_t4dataEv(ptr noundef nonnull align 8 dereferenceable(64) %msg_)
  %call2 = tail call noundef i64 @_ZNK3zmq5msg_t4sizeEv(ptr noundef nonnull align 8 dereferenceable(64) %msg_)
  %call3 = tail call noundef zeroext i1 @_ZN3zmq12radix_tree_t5checkEPKhm(ptr noundef nonnull align 8 dereferenceable(16) %_subscriptions, ptr noundef %call, i64 noundef %call2)
  %invert_matching = getelementptr inbounds i8, ptr %this, i64 393
  %0 = load i8, ptr %invert_matching, align 1
  %1 = and i8 %0, 1
  %2 = icmp ne i8 %1, 0
  %tobool6 = xor i1 %call3, %2
  ret i1 %tobool6
}